target datalayout = "e-m:e-p270:32:32-p271:32:32-p272:64:64-i64:64-i128:128-f80:128-n8:16:32:64-S128"
target triple = "x86_64-pc-linux-gnu"

%struct.rsa_st = type { i32, ptr, i32, ptr, ptr, ptr, ptr, ptr, ptr, ptr, ptr, ptr, ptr, %struct.rsa_pss_params_30_st, ptr, ptr, %struct.crypto_ex_data_st, %struct.CRYPTO_REF_COUNT, i32, ptr, ptr, ptr, ptr, ptr, ptr, i32 }
%struct.rsa_pss_params_30_st = type { i32, %struct.anon, i32, i32 }
%struct.anon = type { i32, i32 }
%struct.crypto_ex_data_st = type { ptr, ptr }
%struct.CRYPTO_REF_COUNT = type { i32 }
%struct.rsa_meth_st = type { ptr, ptr, ptr, ptr, ptr, ptr, ptr, ptr, ptr, i32, ptr, ptr, ptr, ptr, ptr }

@.str.2 = private unnamed_addr constant [33 x i8] c"../openssl/crypto/rsa/rsa_ossl.c\00", align 1
@__func__.rsa_ossl_public_decrypt = private unnamed_addr constant [24 x i8] c"rsa_ossl_public_decrypt\00", align 1

; Function Attrs: nounwind uwtable
define internal i32 @rsa_ossl_public_decrypt(i32 noundef %0, ptr noundef %1, ptr noundef %2, ptr noundef %3, i32 noundef %4) #0 {
  %6 = alloca i32, align 4
  %7 = alloca i32, align 4
  %8 = alloca ptr, align 8
  %9 = alloca ptr, align 8
  %10 = alloca ptr, align 8
  %11 = alloca i32, align 4
  %12 = alloca ptr, align 8
  %13 = alloca ptr, align 8
  %14 = alloca i32, align 4
  %15 = alloca i32, align 4
  %16 = alloca i32, align 4
  %17 = alloca ptr, align 8
  %18 = alloca ptr, align 8
  %19 = alloca i32, align 4
  store i32 %0, ptr %7, align 4, !tbaa !8
  store ptr %1, ptr %8, align 8, !tbaa !10
  store ptr %2, ptr %9, align 8, !tbaa !10
  store ptr %3, ptr %10, align 8, !tbaa !12
  store i32 %4, ptr %11, align 4, !tbaa !8
  call void @llvm.lifetime.start.p0(i64 8, ptr %12) #6
  call void @llvm.lifetime.start.p0(i64 8, ptr %13) #6
  call void @llvm.lifetime.start.p0(i64 4, ptr %14) #6
  call void @llvm.lifetime.start.p0(i64 4, ptr %15) #6
  store i32 0, ptr %15, align 4, !tbaa !8
  call void @llvm.lifetime.start.p0(i64 4, ptr %16) #6
  store i32 -1, ptr %16, align 4, !tbaa !8
  call void @llvm.lifetime.start.p0(i64 8, ptr %17) #6
  store ptr null, ptr %17, align 8, !tbaa !10
  call void @llvm.lifetime.start.p0(i64 8, ptr %18) #6
  store ptr null, ptr %18, align 8, !tbaa !14
  %20 = load ptr, ptr %10, align 8, !tbaa !12
  %21 = getelementptr inbounds nuw %struct.rsa_st, ptr %20, i32 0, i32 5
  %22 = load ptr, ptr %21, align 8, !tbaa !16
  %23 = call i32 @BN_num_bits(ptr noundef %22)
  %24 = icmp sgt i32 %23, 16384
  br i1 %24, label %25, label %26

25:                                               ; preds = %5
  call void @ERR_new()
  call void @ERR_set_debug(ptr noundef @.str.2, i32 noundef 715, ptr noundef @__func__.rsa_ossl_public_decrypt)
  call void (i32, i32, ptr, ...) @ERR_set_error(i32 noundef 4, i32 noundef 105, ptr noundef null)
  store i32 -1, ptr %6, align 4
  store i32 1, ptr %19, align 4
  br label %202

26:                                               ; preds = %5
  %27 = load ptr, ptr %10, align 8, !tbaa !12
  %28 = getelementptr inbounds nuw %struct.rsa_st, ptr %27, i32 0, i32 5
  %29 = load ptr, ptr %28, align 8, !tbaa !16
  %30 = load ptr, ptr %10, align 8, !tbaa !12
  %31 = getelementptr inbounds nuw %struct.rsa_st, ptr %30, i32 0, i32 6
  %32 = load ptr, ptr %31, align 8, !tbaa !30
  %33 = call i32 @BN_ucmp(ptr noundef %29, ptr noundef %32)
  %34 = icmp sle i32 %33, 0
  br i1 %34, label %35, label %36

35:                                               ; preds = %26
  call void @ERR_new()
  call void @ERR_set_debug(ptr noundef @.str.2, i32 noundef 720, ptr noundef @__func__.rsa_ossl_public_decrypt)
  call void (i32, i32, ptr, ...) @ERR_set_error(i32 noundef 4, i32 noundef 101, ptr noundef null)
  store i32 -1, ptr %6, align 4
  store i32 1, ptr %19, align 4
  br label %202

36:                                               ; preds = %26
  %37 = load ptr, ptr %10, align 8, !tbaa !12
  %38 = getelementptr inbounds nuw %struct.rsa_st, ptr %37, i32 0, i32 5
  %39 = load ptr, ptr %38, align 8, !tbaa !16
  %40 = call i32 @BN_num_bits(ptr noundef %39)
  %41 = icmp sgt i32 %40, 3072
  br i1 %41, label %42, label %50

42:                                               ; preds = %36
  %43 = load ptr, ptr %10, align 8, !tbaa !12
  %44 = getelementptr inbounds nuw %struct.rsa_st, ptr %43, i32 0, i32 6
  %45 = load ptr, ptr %44, align 8, !tbaa !30
  %46 = call i32 @BN_num_bits(ptr noundef %45)
  %47 = icmp sgt i32 %46, 64
  br i1 %47, label %48, label %49

48:                                               ; preds = %42
  call void @ERR_new()
  call void @ERR_set_debug(ptr noundef @.str.2, i32 noundef 727, ptr noundef @__func__.rsa_ossl_public_decrypt)
  call void (i32, i32, ptr, ...) @ERR_set_error(i32 noundef 4, i32 noundef 101, ptr noundef null)
  store i32 -1, ptr %6, align 4
  store i32 1, ptr %19, align 4
  br label %202

49:                                               ; preds = %42
  br label %50

50:                                               ; preds = %49, %36
  %51 = load ptr, ptr %10, align 8, !tbaa !12
  %52 = getelementptr inbounds nuw %struct.rsa_st, ptr %51, i32 0, i32 1
  %53 = load ptr, ptr %52, align 8, !tbaa !31
  %54 = call ptr @BN_CTX_new_ex(ptr noundef %53)
  store ptr %54, ptr %18, align 8, !tbaa !14
  %55 = icmp eq ptr %54, null
  br i1 %55, label %56, label %57

56:                                               ; preds = %50
  br label %195

57:                                               ; preds = %50
  %58 = load ptr, ptr %18, align 8, !tbaa !14
  call void @BN_CTX_start(ptr noundef %58)
  %59 = load ptr, ptr %18, align 8, !tbaa !14
  %60 = call ptr @BN_CTX_get(ptr noundef %59)
  store ptr %60, ptr %12, align 8, !tbaa !32
  %61 = load ptr, ptr %18, align 8, !tbaa !14
  %62 = call ptr @BN_CTX_get(ptr noundef %61)
  store ptr %62, ptr %13, align 8, !tbaa !32
  %63 = load ptr, ptr %13, align 8, !tbaa !32
  %64 = icmp eq ptr %63, null
  br i1 %64, label %65, label %66

65:                                               ; preds = %57
  call void @ERR_new()
  call void @ERR_set_debug(ptr noundef @.str.2, i32 noundef 738, ptr noundef @__func__.rsa_ossl_public_decrypt)
  call void (i32, i32, ptr, ...) @ERR_set_error(i32 noundef 4, i32 noundef 524291, ptr noundef null)
  br label %195

66:                                               ; preds = %57
  %67 = load ptr, ptr %10, align 8, !tbaa !12
  %68 = getelementptr inbounds nuw %struct.rsa_st, ptr %67, i32 0, i32 5
  %69 = load ptr, ptr %68, align 8, !tbaa !16
  %70 = call i32 @BN_num_bits(ptr noundef %69)
  %71 = add nsw i32 %70, 7
  %72 = sdiv i32 %71, 8
  store i32 %72, ptr %15, align 4, !tbaa !8
  %73 = load i32, ptr %15, align 4, !tbaa !8
  %74 = sext i32 %73 to i64
  %75 = call noalias ptr @CRYPTO_malloc(i64 noundef %74, ptr noundef @.str.2, i32 noundef 742)
  store ptr %75, ptr %17, align 8, !tbaa !10
  %76 = load ptr, ptr %17, align 8, !tbaa !10
  %77 = icmp eq ptr %76, null
  br i1 %77, label %78, label %79

78:                                               ; preds = %66
  br label %195

79:                                               ; preds = %66
  %80 = load i32, ptr %7, align 4, !tbaa !8
  %81 = load i32, ptr %15, align 4, !tbaa !8
  %82 = icmp sgt i32 %80, %81
  br i1 %82, label %83, label %84

83:                                               ; preds = %79
  call void @ERR_new()
  call void @ERR_set_debug(ptr noundef @.str.2, i32 noundef 751, ptr noundef @__func__.rsa_ossl_public_decrypt)
  call void (i32, i32, ptr, ...) @ERR_set_error(i32 noundef 4, i32 noundef 108, ptr noundef null)
  br label %195

84:                                               ; preds = %79
  %85 = load ptr, ptr %8, align 8, !tbaa !10
  %86 = load i32, ptr %7, align 4, !tbaa !8
  %87 = load ptr, ptr %12, align 8, !tbaa !32
  %88 = call ptr @BN_bin2bn(ptr noundef %85, i32 noundef %86, ptr noundef %87)
  %89 = icmp eq ptr %88, null
  br i1 %89, label %90, label %91

90:                                               ; preds = %84
  br label %195

91:                                               ; preds = %84
  %92 = load ptr, ptr %12, align 8, !tbaa !32
  %93 = load ptr, ptr %10, align 8, !tbaa !12
  %94 = getelementptr inbounds nuw %struct.rsa_st, ptr %93, i32 0, i32 5
  %95 = load ptr, ptr %94, align 8, !tbaa !16
  %96 = call i32 @BN_ucmp(ptr noundef %92, ptr noundef %95)
  %97 = icmp sge i32 %96, 0
  br i1 %97, label %98, label %99

98:                                               ; preds = %91
  call void @ERR_new()
  call void @ERR_set_debug(ptr noundef @.str.2, i32 noundef 759, ptr noundef @__func__.rsa_ossl_public_decrypt)
  call void (i32, i32, ptr, ...) @ERR_set_error(i32 noundef 4, i32 noundef 132, ptr noundef null)
  br label %195

99:                                               ; preds = %91
  %100 = load ptr, ptr %10, align 8, !tbaa !12
  %101 = getelementptr inbounds nuw %struct.rsa_st, ptr %100, i32 0, i32 18
  %102 = load i32, ptr %101, align 4, !tbaa !33
  %103 = and i32 %102, 2
  %104 = icmp ne i32 %103, 0
  br i1 %104, label %105, label %119

105:                                              ; preds = %99
  %106 = load ptr, ptr %10, align 8, !tbaa !12
  %107 = getelementptr inbounds nuw %struct.rsa_st, ptr %106, i32 0, i32 19
  %108 = load ptr, ptr %10, align 8, !tbaa !12
  %109 = getelementptr inbounds nuw %struct.rsa_st, ptr %108, i32 0, i32 24
  %110 = load ptr, ptr %109, align 8, !tbaa !34
  %111 = load ptr, ptr %10, align 8, !tbaa !12
  %112 = getelementptr inbounds nuw %struct.rsa_st, ptr %111, i32 0, i32 5
  %113 = load ptr, ptr %112, align 8, !tbaa !16
  %114 = load ptr, ptr %18, align 8, !tbaa !14
  %115 = call ptr @BN_MONT_CTX_set_locked(ptr noundef %107, ptr noundef %110, ptr noundef %113, ptr noundef %114)
  %116 = icmp ne ptr %115, null
  br i1 %116, label %118, label %117

117:                                              ; preds = %105
  br label %195

118:                                              ; preds = %105
  br label %119

119:                                              ; preds = %118, %99
  %120 = load ptr, ptr %10, align 8, !tbaa !12
  %121 = getelementptr inbounds nuw %struct.rsa_st, ptr %120, i32 0, i32 3
  %122 = load ptr, ptr %121, align 8, !tbaa !35
  %123 = getelementptr inbounds nuw %struct.rsa_meth_st, ptr %122, i32 0, i32 6
  %124 = load ptr, ptr %123, align 8, !tbaa !36
  %125 = load ptr, ptr %13, align 8, !tbaa !32
  %126 = load ptr, ptr %12, align 8, !tbaa !32
  %127 = load ptr, ptr %10, align 8, !tbaa !12
  %128 = getelementptr inbounds nuw %struct.rsa_st, ptr %127, i32 0, i32 6
  %129 = load ptr, ptr %128, align 8, !tbaa !30
  %130 = load ptr, ptr %10, align 8, !tbaa !12
  %131 = getelementptr inbounds nuw %struct.rsa_st, ptr %130, i32 0, i32 5
  %132 = load ptr, ptr %131, align 8, !tbaa !16
  %133 = load ptr, ptr %18, align 8, !tbaa !14
  %134 = load ptr, ptr %10, align 8, !tbaa !12
  %135 = getelementptr inbounds nuw %struct.rsa_st, ptr %134, i32 0, i32 19
  %136 = load ptr, ptr %135, align 8, !tbaa !38
  %137 = call i32 %124(ptr noundef %125, ptr noundef %126, ptr noundef %129, ptr noundef %132, ptr noundef %133, ptr noundef %136)
  %138 = icmp ne i32 %137, 0
  br i1 %138, label %140, label %139

139:                                              ; preds = %119
  br label %195

140:                                              ; preds = %119
  %141 = load i32, ptr %11, align 4, !tbaa !8
  %142 = icmp eq i32 %141, 5
  br i1 %142, label %143, label %160

143:                                              ; preds = %140
  %144 = load ptr, ptr %13, align 8, !tbaa !32
  %145 = call ptr @bn_get_words(ptr noundef %144)
  %146 = getelementptr inbounds i64, ptr %145, i64 0
  %147 = load i64, ptr %146, align 8, !tbaa !39
  %148 = and i64 %147, 15
  %149 = icmp ne i64 %148, 12
  br i1 %149, label %150, label %160

150:                                              ; preds = %143
  %151 = load ptr, ptr %13, align 8, !tbaa !32
  %152 = load ptr, ptr %10, align 8, !tbaa !12
  %153 = getelementptr inbounds nuw %struct.rsa_st, ptr %152, i32 0, i32 5
  %154 = load ptr, ptr %153, align 8, !tbaa !16
  %155 = load ptr, ptr %13, align 8, !tbaa !32
  %156 = call i32 @BN_sub(ptr noundef %151, ptr noundef %154, ptr noundef %155)
  %157 = icmp ne i32 %156, 0
  br i1 %157, label %159, label %158

158:                                              ; preds = %150
  br label %195

159:                                              ; preds = %150
  br label %160

160:                                              ; preds = %159, %143, %140
  %161 = load ptr, ptr %13, align 8, !tbaa !32
  %162 = load ptr, ptr %17, align 8, !tbaa !10
  %163 = load i32, ptr %15, align 4, !tbaa !8
  %164 = call i32 @BN_bn2binpad(ptr noundef %161, ptr noundef %162, i32 noundef %163)
  store i32 %164, ptr %14, align 4, !tbaa !8
  %165 = load i32, ptr %14, align 4, !tbaa !8
  %166 = icmp slt i32 %165, 0
  br i1 %166, label %167, label %168

167:                                              ; preds = %160
  br label %195

168:                                              ; preds = %160
  %169 = load i32, ptr %11, align 4, !tbaa !8
  switch i32 %169, label %189 [
    i32 1, label %170
    i32 5, label %177
    i32 3, label %184
  ]

170:                                              ; preds = %168
  %171 = load ptr, ptr %9, align 8, !tbaa !10
  %172 = load i32, ptr %15, align 4, !tbaa !8
  %173 = load ptr, ptr %17, align 8, !tbaa !10
  %174 = load i32, ptr %14, align 4, !tbaa !8
  %175 = load i32, ptr %15, align 4, !tbaa !8
  %176 = call i32 @RSA_padding_check_PKCS1_type_1(ptr noundef %171, i32 noundef %172, ptr noundef %173, i32 noundef %174, i32 noundef %175)
  store i32 %176, ptr %16, align 4, !tbaa !8
  br label %190

177:                                              ; preds = %168
  %178 = load ptr, ptr %9, align 8, !tbaa !10
  %179 = load i32, ptr %15, align 4, !tbaa !8
  %180 = load ptr, ptr %17, align 8, !tbaa !10
  %181 = load i32, ptr %14, align 4, !tbaa !8
  %182 = load i32, ptr %15, align 4, !tbaa !8
  %183 = call i32 @RSA_padding_check_X931(ptr noundef %178, i32 noundef %179, ptr noundef %180, i32 noundef %181, i32 noundef %182)
  store i32 %183, ptr %16, align 4, !tbaa !8
  br label %190

184:                                              ; preds = %168
  %185 = load ptr, ptr %9, align 8, !tbaa !10
  %186 = load ptr, ptr %17, align 8, !tbaa !10
  %187 = load i32, ptr %14, align 4, !tbaa !8
  store i32 %187, ptr %16, align 4, !tbaa !8
  %188 = sext i32 %187 to i64
  call void @llvm.memcpy.p0.p0.i64(ptr align 1 %185, ptr align 1 %186, i64 %188, i1 false)
  br label %190

189:                                              ; preds = %168
  call void @ERR_new()
  call void @ERR_set_debug(ptr noundef @.str.2, i32 noundef 792, ptr noundef @__func__.rsa_ossl_public_decrypt)
  call void (i32, i32, ptr, ...) @ERR_set_error(i32 noundef 4, i32 noundef 118, ptr noundef null)
  br label %195

190:                                              ; preds = %184, %177, %170
  %191 = load i32, ptr %16, align 4, !tbaa !8
  %192 = icmp slt i32 %191, 0
  br i1 %192, label %193, label %194

193:                                              ; preds = %190
  call void @ERR_new()
  call void @ERR_set_debug(ptr noundef @.str.2, i32 noundef 796, ptr noundef @__func__.rsa_ossl_public_decrypt)
  call void (i32, i32, ptr, ...) @ERR_set_error(i32 noundef 4, i32 noundef 114, ptr noundef null)
  br label %194

194:                                              ; preds = %193, %190
  br label %195

195:                                              ; preds = %194, %189, %167, %158, %139, %117, %98, %90, %83, %78, %65, %56
  %196 = load ptr, ptr %18, align 8, !tbaa !14
  call void @BN_CTX_end(ptr noundef %196)
  %197 = load ptr, ptr %18, align 8, !tbaa !14
  call void @BN_CTX_free(ptr noundef %197)
  %198 = load ptr, ptr %17, align 8, !tbaa !10
  %199 = load i32, ptr %15, align 4, !tbaa !8
  %200 = sext i32 %199 to i64
  call void @CRYPTO_clear_free(ptr noundef %198, i64 noundef %200, ptr noundef @.str.2, i32 noundef 801)
  %201 = load i32, ptr %16, align 4, !tbaa !8
  store i32 %201, ptr %6, align 4
  store i32 1, ptr %19, align 4
  br label %202

202:                                              ; preds = %195, %48, %35, %25
  call void @llvm.lifetime.end.p0(i64 8, ptr %18) #6
  call void @llvm.lifetime.end.p0(i64 8, ptr %17) #6
  call void @llvm.lifetime.end.p0(i64 4, ptr %16) #6
  call void @llvm.lifetime.end.p0(i64 4, ptr %15) #6
  call void @llvm.lifetime.end.p0(i64 4, ptr %14) #6
  call void @llvm.lifetime.end.p0(i64 8, ptr %13) #6
  call void @llvm.lifetime.end.p0(i64 8, ptr %12) #6
  %203 = load i32, ptr %6, align 4
  ret i32 %203
}