; Function Attrs: nounwind uwtable
define internal i32 @rsa_ossl_public_decrypt(i32 noundef %0, ptr noundef %1, ptr noundef %2, ptr noundef %3, i32 noundef %4) #3 {
  %6 = getelementptr inbounds nuw i8, ptr %3, i64 40
  %7 = load ptr, ptr %6, align 8, !tbaa !8
  %8 = tail call i32 @BN_num_bits(ptr noundef %7) #9
  %9 = icmp sgt i32 %8, 16384
  br i1 %9, label %10, label %11

10:                                               ; preds = %5
  tail call void @ERR_new() #9
  tail call void @ERR_set_debug(ptr noundef nonnull @.str.2, i32 noundef 715, ptr noundef nonnull @__func__.rsa_ossl_public_decrypt) #9
  tail call void (i32, i32, ptr, ...) @ERR_set_error(i32 noundef 4, i32 noundef 105, ptr noundef null) #9
  br label %100

11:                                               ; preds = %5
  %12 = load ptr, ptr %6, align 8, !tbaa !8
  %13 = getelementptr inbounds nuw i8, ptr %3, i64 48
  %14 = load ptr, ptr %13, align 8, !tbaa !23
  %15 = tail call i32 @BN_ucmp(ptr noundef %12, ptr noundef %14) #9
  %16 = icmp slt i32 %15, 1
  br i1 %16, label %17, label %18

17:                                               ; preds = %11
  tail call void @ERR_new() #9
  tail call void @ERR_set_debug(ptr noundef nonnull @.str.2, i32 noundef 720, ptr noundef nonnull @__func__.rsa_ossl_public_decrypt) #9
  tail call void (i32, i32, ptr, ...) @ERR_set_error(i32 noundef 4, i32 noundef 101, ptr noundef null) #9
  br label %100

18:                                               ; preds = %11
  %19 = load ptr, ptr %6, align 8, !tbaa !8
  %20 = tail call i32 @BN_num_bits(ptr noundef %19) #9
  %21 = icmp sgt i32 %20, 3072
  br i1 %21, label %22, label %27

22:                                               ; preds = %18
  %23 = load ptr, ptr %13, align 8, !tbaa !23
  %24 = tail call i32 @BN_num_bits(ptr noundef %23) #9
  %25 = icmp sgt i32 %24, 64
  br i1 %25, label %26, label %27

26:                                               ; preds = %22
  tail call void @ERR_new() #9
  tail call void @ERR_set_debug(ptr noundef nonnull @.str.2, i32 noundef 727, ptr noundef nonnull @__func__.rsa_ossl_public_decrypt) #9
  tail call void (i32, i32, ptr, ...) @ERR_set_error(i32 noundef 4, i32 noundef 101, ptr noundef null) #9
  br label %100

27:                                               ; preds = %22, %18
  %28 = getelementptr inbounds nuw i8, ptr %3, i64 8
  %29 = load ptr, ptr %28, align 8, !tbaa !24
  %30 = tail call ptr @BN_CTX_new_ex(ptr noundef %29) #9
  %31 = icmp eq ptr %30, null
  br i1 %31, label %98, label %32

32:                                               ; preds = %27
  tail call void @BN_CTX_start(ptr noundef nonnull %30) #9
  %33 = tail call ptr @BN_CTX_get(ptr noundef nonnull %30) #9
  %34 = tail call ptr @BN_CTX_get(ptr noundef nonnull %30) #9
  %35 = icmp eq ptr %34, null
  br i1 %35, label %36, label %37

36:                                               ; preds = %32
  tail call void @ERR_new() #9
  tail call void @ERR_set_debug(ptr noundef nonnull @.str.2, i32 noundef 738, ptr noundef nonnull @__func__.rsa_ossl_public_decrypt) #9
  tail call void (i32, i32, ptr, ...) @ERR_set_error(i32 noundef 4, i32 noundef 524291, ptr noundef null) #9
  br label %98

37:                                               ; preds = %32
  %38 = load ptr, ptr %6, align 8, !tbaa !8
  %39 = tail call i32 @BN_num_bits(ptr noundef %38) #9
  %40 = add nsw i32 %39, 7
  %41 = sdiv i32 %40, 8
  %42 = sext i32 %41 to i64
  %43 = tail call noalias ptr @CRYPTO_malloc(i64 noundef %42, ptr noundef nonnull @.str.2, i32 noundef 742) #9
  %44 = icmp eq ptr %43, null
  br i1 %44, label %98, label %45

45:                                               ; preds = %37
  %46 = icmp sgt i32 %0, %41
  br i1 %46, label %47, label %48

47:                                               ; preds = %45
  tail call void @ERR_new() #9
  tail call void @ERR_set_debug(ptr noundef nonnull @.str.2, i32 noundef 751, ptr noundef nonnull @__func__.rsa_ossl_public_decrypt) #9
  tail call void (i32, i32, ptr, ...) @ERR_set_error(i32 noundef 4, i32 noundef 108, ptr noundef null) #9
  br label %98

48:                                               ; preds = %45
  %49 = tail call ptr @BN_bin2bn(ptr noundef %1, i32 noundef %0, ptr noundef %33) #9
  %50 = icmp eq ptr %49, null
  br i1 %50, label %98, label %51

51:                                               ; preds = %48
  %52 = load ptr, ptr %6, align 8, !tbaa !8
  %53 = tail call i32 @BN_ucmp(ptr noundef %33, ptr noundef %52) #9
  %54 = icmp sgt i32 %53, -1
  br i1 %54, label %55, label %56

55:                                               ; preds = %51
  tail call void @ERR_new() #9
  tail call void @ERR_set_debug(ptr noundef nonnull @.str.2, i32 noundef 759, ptr noundef nonnull @__func__.rsa_ossl_public_decrypt) #9
  tail call void (i32, i32, ptr, ...) @ERR_set_error(i32 noundef 4, i32 noundef 132, ptr noundef null) #9
  br label %98

56:                                               ; preds = %51
  %57 = getelementptr inbounds nuw i8, ptr %3, i64 164
  %58 = load i32, ptr %57, align 4, !tbaa !25
  %59 = and i32 %58, 2
  %.not = icmp eq i32 %59, 0
  br i1 %.not, label %66, label %60

60:                                               ; preds = %56
  %61 = getelementptr inbounds nuw i8, ptr %3, i64 168
  %62 = getelementptr inbounds nuw i8, ptr %3, i64 208
  %63 = load ptr, ptr %62, align 8, !tbaa !26
  %64 = load ptr, ptr %6, align 8, !tbaa !8
  %65 = tail call ptr @BN_MONT_CTX_set_locked(ptr noundef nonnull %61, ptr noundef %63, ptr noundef %64, ptr noundef nonnull %30) #9
  %.not72 = icmp eq ptr %65, null
  br i1 %.not72, label %98, label %66

66:                                               ; preds = %60, %56
  %67 = getelementptr inbounds nuw i8, ptr %3, i64 24
  %68 = load ptr, ptr %67, align 8, !tbaa !27
  %69 = getelementptr inbounds nuw i8, ptr %68, i64 48
  %70 = load ptr, ptr %69, align 8, !tbaa !28
  %71 = load ptr, ptr %13, align 8, !tbaa !23
  %72 = load ptr, ptr %6, align 8, !tbaa !8
  %73 = getelementptr inbounds nuw i8, ptr %3, i64 168
  %74 = load ptr, ptr %73, align 8, !tbaa !31
  %75 = tail call i32 %70(ptr noundef nonnull %34, ptr noundef %33, ptr noundef %71, ptr noundef %72, ptr noundef nonnull %30, ptr noundef %74) #9
  %.not73 = icmp eq i32 %75, 0
  br i1 %.not73, label %98, label %76

76:                                               ; preds = %66
  %77 = icmp eq i32 %4, 5
  br i1 %77, label %78, label %85

78:                                               ; preds = %76
  %79 = tail call ptr @bn_get_words(ptr noundef nonnull %34) #9
  %80 = load i64, ptr %79, align 8, !tbaa !32
  %81 = and i64 %80, 15
  %.not74 = icmp eq i64 %81, 12
  br i1 %.not74, label %85, label %82

82:                                               ; preds = %78
  %83 = load ptr, ptr %6, align 8, !tbaa !8
  %84 = tail call i32 @BN_sub(ptr noundef nonnull %34, ptr noundef %83, ptr noundef nonnull %34) #9
  %.not75 = icmp eq i32 %84, 0
  br i1 %.not75, label %98, label %85

85:                                               ; preds = %82, %78, %76
  %86 = tail call i32 @BN_bn2binpad(ptr noundef nonnull %34, ptr noundef nonnull %43, i32 noundef %41) #9
  %87 = icmp slt i32 %86, 0
  br i1 %87, label %98, label %88

88:                                               ; preds = %85
  switch i32 %4, label %94 [
    i32 1, label %89
    i32 5, label %91
    i32 3, label %.thread
  ]

89:                                               ; preds = %88
  %90 = tail call i32 @RSA_padding_check_PKCS1_type_1(ptr noundef %2, i32 noundef %41, ptr noundef nonnull %43, i32 noundef %86, i32 noundef %41) #9
  br label %95

91:                                               ; preds = %88
  %92 = tail call i32 @RSA_padding_check_X931(ptr noundef %2, i32 noundef %41, ptr noundef nonnull %43, i32 noundef %86, i32 noundef %41) #9
  br label %95

.thread:                                          ; preds = %88
  %93 = zext nneg i32 %86 to i64
  tail call void @llvm.memcpy.p0.p0.i64(ptr align 1 %2, ptr nonnull align 1 %43, i64 %93, i1 false)
  br label %98

94:                                               ; preds = %88
  tail call void @ERR_new() #9
  tail call void @ERR_set_debug(ptr noundef nonnull @.str.2, i32 noundef 792, ptr noundef nonnull @__func__.rsa_ossl_public_decrypt) #9
  tail call void (i32, i32, ptr, ...) @ERR_set_error(i32 noundef 4, i32 noundef 118, ptr noundef null) #9
  br label %98

95:                                               ; preds = %91, %89
  %.1 = phi i32 [ %92, %91 ], [ %90, %89 ]
  %96 = icmp slt i32 %.1, 0
  br i1 %96, label %97, label %98

97:                                               ; preds = %95
  tail call void @ERR_new() #9
  tail call void @ERR_set_debug(ptr noundef nonnull @.str.2, i32 noundef 796, ptr noundef nonnull @__func__.rsa_ossl_public_decrypt) #9
  tail call void (i32, i32, ptr, ...) @ERR_set_error(i32 noundef 4, i32 noundef 114, ptr noundef null) #9
  br label %98

98:                                               ; preds = %.thread, %95, %97, %85, %82, %66, %60, %48, %37, %27, %94, %55, %47, %36
  %.062 = phi i32 [ 0, %27 ], [ 0, %36 ], [ %41, %37 ], [ %41, %47 ], [ %41, %48 ], [ %41, %55 ], [ %41, %85 ], [ %41, %94 ], [ %41, %97 ], [ %41, %95 ], [ %41, %82 ], [ %41, %66 ], [ %41, %60 ], [ %41, %.thread ]
  %.061 = phi i32 [ -1, %27 ], [ -1, %36 ], [ -1, %37 ], [ -1, %47 ], [ -1, %48 ], [ -1, %55 ], [ -1, %85 ], [ -1, %94 ], [ %.1, %97 ], [ %.1, %95 ], [ -1, %82 ], [ -1, %66 ], [ -1, %60 ], [ %86, %.thread ]
  %.0 = phi ptr [ null, %27 ], [ null, %36 ], [ null, %37 ], [ %43, %47 ], [ %43, %48 ], [ %43, %55 ], [ %43, %85 ], [ %43, %94 ], [ %43, %97 ], [ %43, %95 ], [ %43, %82 ], [ %43, %66 ], [ %43, %60 ], [ %43, %.thread ]
  tail call void @BN_CTX_end(ptr noundef %30) #9
  tail call void @BN_CTX_free(ptr noundef %30) #9
  %99 = sext i32 %.062 to i64
  tail call void @CRYPTO_clear_free(ptr noundef %.0, i64 noundef %99, ptr noundef nonnull @.str.2, i32 noundef 801) #9
  br label %100

100:                                              ; preds = %98, %26, %17, %10
  %.063 = phi i32 [ -1, %10 ], [ -1, %17 ], [ -1, %26 ], [ %.061, %98 ]
  ret i32 %.063
}